; Function Attrs: mustprogress uwtable
define void @_ZN5faiss40IndexProductLocalSearchQuantizerFastScanC2EimmmNS_10MetricTypeENS_17AdditiveQuantizer13Search_type_tEi(ptr noundef nonnull align 8 dereferenceable(552) %0, i32 noundef %1, i64 noundef %2, i64 noundef %3, i64 noundef %4, i32 noundef %5, i32 noundef %6, i32 noundef %7) unnamed_addr #1 align 2 personality ptr @__gxx_personality_v0 {
  tail call void @_ZN5faiss13IndexFastScanC2Ev(ptr noundef nonnull align 8 dereferenceable(160) %0)
  %9 = getelementptr inbounds nuw i8, ptr %0, i64 144
  store i8 1, ptr %9, align 8, !tbaa !62
  %10 = getelementptr inbounds nuw i8, ptr %0, i64 148
  store i32 1, ptr %10, align 4, !tbaa !76
  %11 = getelementptr inbounds nuw i8, ptr %0, i64 152
  store i64 0, ptr %11, align 8, !tbaa !17
  %12 = getelementptr inbounds nuw i8, ptr %0, i64 25
  store i8 0, ptr %12, align 1, !tbaa !4
  %13 = getelementptr inbounds nuw i8, ptr %0, i64 136
  store ptr null, ptr %13, align 8, !tbaa !26
  store ptr getelementptr inbounds nuw inrange(-16, 200) (i8, ptr @_ZTVN5faiss40IndexProductLocalSearchQuantizerFastScanE, i64 16), ptr %0, align 8, !tbaa !53
  %14 = getelementptr inbounds nuw i8, ptr %0, i64 160
  %15 = sext i32 %1 to i64
  invoke void @_ZN5faiss27ProductLocalSearchQuantizerC1EmmmmNS_17AdditiveQuantizer13Search_type_tE(ptr noundef nonnull align 8 dereferenceable(392) %14, i64 noundef %15, i64 noundef %2, i64 noundef %3, i64 noundef %4, i32 noundef %6)
          to label %16 unwind label %18

16:                                               ; preds = %8
  invoke void @_ZN5faiss30IndexAdditiveQuantizerFastScan4initEPNS_17AdditiveQuantizerENS_10MetricTypeEi(ptr noundef nonnull align 8 dereferenceable(160) %0, ptr noundef nonnull %14, i32 noundef %5, i32 noundef %7)
          to label %17 unwind label %20

17:                                               ; preds = %16
  ret void

18:                                               ; preds = %8
  %19 = landingpad { ptr, i32 }
          cleanup
  br label %22

20:                                               ; preds = %16
  %21 = landingpad { ptr, i32 }
          cleanup
  tail call void @_ZN5faiss24ProductAdditiveQuantizerD2Ev(ptr noundef nonnull align 8 dereferenceable(392) %14) #14
  br label %22

22:                                               ; preds = %20, %18
  %.pn = phi { ptr, i32 } [ %21, %20 ], [ %19, %18 ]
  tail call void @_ZN5faiss30IndexAdditiveQuantizerFastScanD2Ev(ptr noundef nonnull align 8 dereferenceable(160) %0) #14
  resume { ptr, i32 } %.pn
}